target datalayout = "e-m:e-p270:32:32-p271:32:32-p272:64:64-i64:64-i128:128-f80:128-n8:16:32:64-S128"
target triple = "x86_64-pc-linux-gnu"

%struct.KeccakWidth1600_12rounds_SpongeInstanceStruct = type { [200 x i8], i32, i32, i32 }

; Function Attrs: nounwind uwtable
define hidden i32 @KeccakWidth1600_12rounds_SpongeAbsorbLastFewBits(ptr noundef %0, i8 noundef zeroext %1) #0 {
  %3 = alloca i32, align 4
  %4 = alloca ptr, align 8
  %5 = alloca i8, align 1
  %6 = alloca i32, align 4
  %7 = alloca i32, align 4
  store ptr %0, ptr %4, align 8, !tbaa !20
  store i8 %1, ptr %5, align 1, !tbaa !13
  call void @llvm.lifetime.start.p0(i64 4, ptr %6) #3
  %8 = load ptr, ptr %4, align 8, !tbaa !20
  %9 = getelementptr inbounds nuw %struct.KeccakWidth1600_12rounds_SpongeInstanceStruct, ptr %8, i32 0, i32 1
  %10 = load i32, ptr %9, align 8, !tbaa !22
  %11 = udiv i32 %10, 8
  store i32 %11, ptr %6, align 4, !tbaa !4
  %12 = load i8, ptr %5, align 1, !tbaa !13
  %13 = zext i8 %12 to i32
  %14 = icmp eq i32 %13, 0
  br i1 %14, label %15, label %16

15:                                               ; preds = %2
  store i32 1, ptr %3, align 4
  store i32 1, ptr %7, align 4
  br label %70

16:                                               ; preds = %2
  %17 = load ptr, ptr %4, align 8, !tbaa !20
  %18 = getelementptr inbounds nuw %struct.KeccakWidth1600_12rounds_SpongeInstanceStruct, ptr %17, i32 0, i32 3
  %19 = load i32, ptr %18, align 8, !tbaa !25
  %20 = icmp ne i32 %19, 0
  br i1 %20, label %21, label %22

21:                                               ; preds = %16
  store i32 1, ptr %3, align 4
  store i32 1, ptr %7, align 4
  br label %70

22:                                               ; preds = %16
  %23 = load i8, ptr %5, align 1, !tbaa !13
  %24 = zext i8 %23 to i32
  %25 = load ptr, ptr %4, align 8, !tbaa !20
  %26 = getelementptr inbounds nuw %struct.KeccakWidth1600_12rounds_SpongeInstanceStruct, ptr %25, i32 0, i32 0
  %27 = getelementptr inbounds [200 x i8], ptr %26, i64 0, i64 0
  %28 = load ptr, ptr %4, align 8, !tbaa !20
  %29 = getelementptr inbounds nuw %struct.KeccakWidth1600_12rounds_SpongeInstanceStruct, ptr %28, i32 0, i32 2
  %30 = load i32, ptr %29, align 4, !tbaa !24
  %31 = zext i32 %30 to i64
  %32 = getelementptr inbounds nuw i8, ptr %27, i64 %31
  %33 = load i8, ptr %32, align 1, !tbaa !13
  %34 = zext i8 %33 to i32
  %35 = xor i32 %34, %24
  %36 = trunc i32 %35 to i8
  store i8 %36, ptr %32, align 1, !tbaa !13
  %37 = load i8, ptr %5, align 1, !tbaa !13
  %38 = zext i8 %37 to i32
  %39 = icmp sge i32 %38, 128
  br i1 %39, label %40, label %51

40:                                               ; preds = %22
  %41 = load ptr, ptr %4, align 8, !tbaa !20
  %42 = getelementptr inbounds nuw %struct.KeccakWidth1600_12rounds_SpongeInstanceStruct, ptr %41, i32 0, i32 2
  %43 = load i32, ptr %42, align 4, !tbaa !24
  %44 = load i32, ptr %6, align 4, !tbaa !4
  %45 = sub i32 %44, 1
  %46 = icmp eq i32 %43, %45
  br i1 %46, label %47, label %51

47:                                               ; preds = %40
  %48 = load ptr, ptr %4, align 8, !tbaa !20
  %49 = getelementptr inbounds nuw %struct.KeccakWidth1600_12rounds_SpongeInstanceStruct, ptr %48, i32 0, i32 0
  %50 = getelementptr inbounds [200 x i8], ptr %49, i64 0, i64 0
  call void @KeccakP1600_Permute_12rounds(ptr noundef %50)
  br label %51

51:                                               ; preds = %47, %40, %22
  %52 = load ptr, ptr %4, align 8, !tbaa !20
  %53 = getelementptr inbounds nuw %struct.KeccakWidth1600_12rounds_SpongeInstanceStruct, ptr %52, i32 0, i32 0
  %54 = getelementptr inbounds [200 x i8], ptr %53, i64 0, i64 0
  %55 = load i32, ptr %6, align 4, !tbaa !4
  %56 = sub i32 %55, 1
  %57 = zext i32 %56 to i64
  %58 = getelementptr inbounds nuw i8, ptr %54, i64 %57
  %59 = load i8, ptr %58, align 1, !tbaa !13
  %60 = zext i8 %59 to i32
  %61 = xor i32 %60, 128
  %62 = trunc i32 %61 to i8
  store i8 %62, ptr %58, align 1, !tbaa !13
  %63 = load ptr, ptr %4, align 8, !tbaa !20
  %64 = getelementptr inbounds nuw %struct.KeccakWidth1600_12rounds_SpongeInstanceStruct, ptr %63, i32 0, i32 0
  %65 = getelementptr inbounds [200 x i8], ptr %64, i64 0, i64 0
  call void @KeccakP1600_Permute_12rounds(ptr noundef %65)
  %66 = load ptr, ptr %4, align 8, !tbaa !20
  %67 = getelementptr inbounds nuw %struct.KeccakWidth1600_12rounds_SpongeInstanceStruct, ptr %66, i32 0, i32 2
  store i32 0, ptr %67, align 4, !tbaa !24
  %68 = load ptr, ptr %4, align 8, !tbaa !20
  %69 = getelementptr inbounds nuw %struct.KeccakWidth1600_12rounds_SpongeInstanceStruct, ptr %68, i32 0, i32 3
  store i32 1, ptr %69, align 8, !tbaa !25
  store i32 0, ptr %3, align 4
  store i32 1, ptr %7, align 4
  br label %70

70:                                               ; preds = %51, %21, %15
  call void @llvm.lifetime.end.p0(i64 4, ptr %6) #3
  %71 = load i32, ptr %3, align 4
  ret i32 %71
}